; ModuleID = '1/1548.c'
source_filename = "1/1548.c"
target datalayout = "e-m:e-p270:32:32-p271:32:32-p272:64:64-i64:64-f80:128-n8:16:32:64-S128"
target triple = "x86_64-pc-linux-gnu"

@.str = private unnamed_addr constant [3 x i8] c"%d\00", align 1
@.str.1 = private unnamed_addr constant [2 x i8] c"\0A\00", align 1

; Function Attrs: noinline nounwind uwtable
define dso_local i32 @cal(i32 %0, i32 %1) #0 {
  %3 = alloca i32, align 4
  %4 = alloca i32, align 4
  %5 = alloca i32, align 4
  %6 = alloca i32, align 4
  %7 = alloca i32, align 4
  store i32 %0, i32* %4, align 4
  store i32 %1, i32* %5, align 4
  %8 = load i32, i32* %5, align 4
  %9 = icmp eq i32 %8, 1
  br i1 %9, label %10, label %11

10:                                               ; preds = %2
  store i32 1, i32* %3, align 4
  br label %47

11:                                               ; preds = %2
  store i32 0, i32* %7, align 4
  %12 = load i32, i32* %4, align 4
  store i32 %12, i32* %6, align 4
  br label %13

13:                                               ; preds = %42, %11
  %14 = load i32, i32* %6, align 4
  %15 = load i32, i32* %5, align 4
  %16 = icmp sle i32 %14, %15
  br i1 %16, label %17, label %45

17:                                               ; preds = %13
  %18 = load i32, i32* %5, align 4
  %19 = load i32, i32* %6, align 4
  %20 = srem i32 %18, %19
  %21 = icmp eq i32 %20, 0
  br i1 %21, label %22, label %41

22:                                               ; preds = %17
  %23 = load i32, i32* %5, align 4
  %24 = load i32, i32* %6, align 4
  %25 = sdiv i32 %23, %24
  %26 = icmp eq i32 %25, 1
  br i1 %26, label %33, label %27

27:                                               ; preds = %22
  %28 = load i32, i32* %5, align 4
  %29 = load i32, i32* %6, align 4
  %30 = sdiv i32 %28, %29
  %31 = load i32, i32* %4, align 4
  %32 = icmp sgt i32 %30, %31
  br i1 %32, label %33, label %41

33:                                               ; preds = %27, %22
  %34 = load i32, i32* %6, align 4
  %35 = load i32, i32* %5, align 4
  %36 = load i32, i32* %6, align 4
  %37 = sdiv i32 %35, %36
  %38 = call i32 @cal(i32 %34, i32 %37)
  %39 = load i32, i32* %7, align 4
  %40 = add nsw i32 %39, %38
  store i32 %40, i32* %7, align 4
  br label %41

41:                                               ; preds = %33, %27, %17
  br label %42

42:                                               ; preds = %41
  %43 = load i32, i32* %6, align 4
  %44 = add nsw i32 %43, 1
  store i32 %44, i32* %6, align 4
  br label %13

45:                                               ; preds = %13
  %46 = load i32, i32* %7, align 4
  store i32 %46, i32* %3, align 4
  br label %47

47:                                               ; preds = %45, %10
  %48 = load i32, i32* %3, align 4
  ret i32 %48
}

; Function Attrs: noinline nounwind uwtable
define dso_local i32 @main() #0 {
  %1 = alloca i32, align 4
  %2 = alloca i32, align 4
  %3 = alloca i32, align 4
  %4 = alloca i32, align 4
  store i32 0, i32* %1, align 4
  %5 = call i32 (i8*, ...) @__isoc99_scanf(i8* getelementptr inbounds ([3 x i8], [3 x i8]* @.str, i64 0, i64 0), i32* %2)
  store i32 1, i32* %3, align 4
  br label %6

6:                                                ; preds = %21, %0
  %7 = load i32, i32* %3, align 4
  %8 = load i32, i32* %2, align 4
  %9 = icmp sle i32 %7, %8
  br i1 %9, label %10, label %24

10:                                               ; preds = %6
  %11 = call i32 (i8*, ...) @__isoc99_scanf(i8* getelementptr inbounds ([3 x i8], [3 x i8]* @.str, i64 0, i64 0), i32* %4)
  %12 = load i32, i32* %4, align 4
  %13 = call i32 @cal(i32 2, i32 %12)
  %14 = call i32 (i8*, ...) @printf(i8* getelementptr inbounds ([3 x i8], [3 x i8]* @.str, i64 0, i64 0), i32 %13)
  %15 = load i32, i32* %3, align 4
  %16 = load i32, i32* %2, align 4
  %17 = icmp ne i32 %15, %16
  br i1 %17, label %18, label %20

18:                                               ; preds = %10
  %19 = call i32 (i8*, ...) @printf(i8* getelementptr inbounds ([2 x i8], [2 x i8]* @.str.1, i64 0, i64 0))
  br label %20

20:                                               ; preds = %18, %10
  br label %21

21:                                               ; preds = %20
  %22 = load i32, i32* %3, align 4
  %23 = add nsw i32 %22, 1
  store i32 %23, i32* %3, align 4
  br label %6

24:                                               ; preds = %6
  ret i32 0
}

declare dso_local i32 @__isoc99_scanf(i8*, ...) #1

declare dso_local i32 @printf(i8*, ...) #1


!llvm.module.flags = !{!0}
!llvm.ident = !{!1}

!0 = !{i32 1, !"wchar_size", i32 4}
!1 = !{!"clang version 10.0.0-4ubuntu1 "}
